; Function Attrs: nounwind uwtable
define hidden void @zim_SplFixedArray_offsetSet(ptr nocapture noundef readonly %0, ptr nocapture readnone %1) #0 {
  %3 = alloca ptr, align 8
  %4 = alloca ptr, align 8
  %5 = getelementptr inbounds i8, ptr %0, i64 44
  %6 = load i32, ptr %5, align 4
  %7 = call i32 (i32, ptr, ...) @zend_parse_parameters(i32 noundef %6, ptr noundef nonnull @.str.8, ptr noundef nonnull %3, ptr noundef nonnull %4) #12
  %8 = icmp eq i32 %7, -1
  br i1 %8, label %9, label %12

9:                                                ; preds = %2
  %10 = load ptr, ptr getelementptr inbounds (%struct._zend_executor_globals, ptr @executor_globals, i64 0, i32 50), align 8
  %11 = icmp ne ptr %10, null
  call void @llvm.assume(i1 %11)
  br label %18

12:                                               ; preds = %2
  %13 = getelementptr inbounds i8, ptr %0, i64 32
  %14 = load ptr, ptr %13, align 8
  %15 = getelementptr inbounds i8, ptr %14, i64 -32
  %16 = load ptr, ptr %3, align 8
  %17 = load ptr, ptr %4, align 8
  call fastcc void @spl_fixedarray_object_write_dimension_helper(ptr noundef nonnull %15, ptr noundef %16, ptr noundef %17)
  br label %18

18:                                               ; preds = %12, %9
  ret void
}